; Function Attrs: mustprogress nounwind uwtable
define hidden void @_ZN4cvc58internal4prop16SkolemDefManagerD2Ev(ptr noundef nonnull align 8 dereferenceable(224) %this) unnamed_addr #4 align 2 personality ptr @__gxx_personality_v0 {
entry:
  %d_hasSkolems = getelementptr inbounds i8, ptr %this, i64 112
  tail call void @_ZN4cvc57context9CDHashMapINS_8internal12NodeTemplateILb1EEEbSt4hashIS4_EED2Ev(ptr noundef nonnull align 8 dereferenceable(112) %d_hasSkolems) #19
  %d_skActive = getelementptr inbounds i8, ptr %this, i64 56
  store ptr getelementptr inbounds ({ [6 x ptr] }, ptr @_ZTVN4cvc57context15CDInsertHashMapINS_8internal12NodeTemplateILb1EEEbSt4hashIS4_EEE, i64 0, i32 0, i64 2), ptr %d_skActive, align 8
  invoke void @_ZN4cvc57context10ContextObj7destroyEv(ptr noundef nonnull align 8 dereferenceable(40) %d_skActive)
          to label %invoke.cont.i.i unwind label %terminate.lpad.i.i

invoke.cont.i.i:                                  ; preds = %entry
  %d_insertMap.i.i = getelementptr inbounds i8, ptr %this, i64 96
  %0 = load ptr, ptr %d_insertMap.i.i, align 8
  %isnull.i.i = icmp eq ptr %0, null
  br i1 %isnull.i.i, label %_ZN4cvc57context9CDHashSetINS_8internal12NodeTemplateILb1EEESt4hashIS4_EED2Ev.exit, label %delete.notnull.i.i

delete.notnull.i.i:                               ; preds = %invoke.cont.i.i
  tail call void @_ZN4cvc57context13InsertHashMapINS_8internal12NodeTemplateILb1EEEbSt4hashIS4_EED2Ev(ptr noundef nonnull align 8 dereferenceable(136) %0) #19
  tail call void @_ZdlPv(ptr noundef nonnull %0) #18
  br label %_ZN4cvc57context9CDHashSetINS_8internal12NodeTemplateILb1EEESt4hashIS4_EED2Ev.exit

terminate.lpad.i.i:                               ; preds = %entry
  %1 = landingpad { ptr, i32 }
          catch ptr null
  %2 = extractvalue { ptr, i32 } %1, 0
  tail call void @__clang_call_terminate(ptr %2) #20
  unreachable

_ZN4cvc57context9CDHashSetINS_8internal12NodeTemplateILb1EEESt4hashIS4_EED2Ev.exit: ; preds = %invoke.cont.i.i, %delete.notnull.i.i
  tail call void @_ZN4cvc57context15CDInsertHashMapINS_8internal12NodeTemplateILb1EEES4_St4hashIS4_EED2Ev(ptr noundef nonnull align 8 dereferenceable(56) %this) #19
  ret void
}